; Function Attrs: mustprogress nounwind uwtable
define hidden noundef range(i32 -2147483647, -2147483648) i32 @_ZN12ObjectLookup15sort_by_addressEPNS_11ObjectEntryES1_(ptr nocapture noundef readonly %0, ptr nocapture noundef readonly %1) #0 align 2 {
  %3 = load ptr, ptr %0, align 8
  %.not.i.i = icmp eq ptr %3, null
  br i1 %.not.i.i, label %_ZNK12ObjectLookup11ObjectEntry9oop_valueEv.exit, label %4

4:                                                ; preds = %2
  %5 = ptrtoint ptr %3 to i64
  %6 = and i64 %5, 3
  switch i64 %6, label %15 [
    i64 1, label %7
    i64 2, label %11
  ]

7:                                                ; preds = %4
  %8 = getelementptr inbounds i8, ptr %3, i64 -1
  %9 = load ptr, ptr @_ZN14AccessInternal15RuntimeDispatchILm598084EP7oopDescLNS_11BarrierTypeE2EE10_load_funcE, align 8
  %10 = tail call noundef ptr %9(ptr noundef nonnull %8) #11
  br label %_ZNK12ObjectLookup11ObjectEntry9oop_valueEv.exit

11:                                               ; preds = %4
  %12 = getelementptr inbounds i8, ptr %3, i64 -2
  %13 = load ptr, ptr @_ZN14AccessInternal15RuntimeDispatchILm548932EP7oopDescLNS_11BarrierTypeE2EE10_load_funcE, align 8
  %14 = tail call noundef ptr %13(ptr noundef nonnull %12) #11
  br label %_ZNK12ObjectLookup11ObjectEntry9oop_valueEv.exit

15:                                               ; preds = %4
  %16 = load ptr, ptr %3, align 8
  br label %_ZNK12ObjectLookup11ObjectEntry9oop_valueEv.exit

_ZNK12ObjectLookup11ObjectEntry9oop_valueEv.exit: ; preds = %2, %7, %11, %15
  %.0.i.i = phi ptr [ null, %2 ], [ %10, %7 ], [ %14, %11 ], [ %16, %15 ]
  %17 = load ptr, ptr %1, align 8
  %.not.i.i2 = icmp eq ptr %17, null
  br i1 %.not.i.i2, label %_ZNK12ObjectLookup11ObjectEntry9oop_valueEv.exit4, label %18

18:                                               ; preds = %_ZNK12ObjectLookup11ObjectEntry9oop_valueEv.exit
  %19 = ptrtoint ptr %17 to i64
  %20 = and i64 %19, 3
  switch i64 %20, label %29 [
    i64 1, label %21
    i64 2, label %25
  ]

21:                                               ; preds = %18
  %22 = getelementptr inbounds i8, ptr %17, i64 -1
  %23 = load ptr, ptr @_ZN14AccessInternal15RuntimeDispatchILm598084EP7oopDescLNS_11BarrierTypeE2EE10_load_funcE, align 8
  %24 = tail call noundef ptr %23(ptr noundef nonnull %22) #11
  br label %_ZNK12ObjectLookup11ObjectEntry9oop_valueEv.exit4

25:                                               ; preds = %18
  %26 = getelementptr inbounds i8, ptr %17, i64 -2
  %27 = load ptr, ptr @_ZN14AccessInternal15RuntimeDispatchILm548932EP7oopDescLNS_11BarrierTypeE2EE10_load_funcE, align 8
  %28 = tail call noundef ptr %27(ptr noundef nonnull %26) #11
  br label %_ZNK12ObjectLookup11ObjectEntry9oop_valueEv.exit4

29:                                               ; preds = %18
  %30 = load ptr, ptr %17, align 8
  br label %_ZNK12ObjectLookup11ObjectEntry9oop_valueEv.exit4

_ZNK12ObjectLookup11ObjectEntry9oop_valueEv.exit4: ; preds = %_ZNK12ObjectLookup11ObjectEntry9oop_valueEv.exit, %21, %25, %29
  %.0.i.i3 = phi ptr [ null, %_ZNK12ObjectLookup11ObjectEntry9oop_valueEv.exit ], [ %24, %21 ], [ %28, %25 ], [ %30, %29 ]
  %31 = icmp ult ptr %.0.i.i, %.0.i.i3
  %32 = icmp ugt ptr %.0.i.i, %.0.i.i3
  %..i.neg.i = sext i1 %32 to i32
  %.0.i.neg.i = select i1 %31, i32 1, i32 %..i.neg.i
  ret i32 %.0.i.neg.i
}